target datalayout = "e-m:e-p270:32:32-p271:32:32-p272:64:64-i64:64-i128:128-f80:128-n8:16:32:64-S128"
target triple = "x86_64-pc-linux-gnu"

@verify_err = internal global i32 0, align 4

; Function Attrs: nounwind uwtable
define internal i32 @cms_cb(i32 noundef %0, ptr noundef %1) #0 {
  %3 = alloca i32, align 4
  %4 = alloca i32, align 4
  %5 = alloca ptr, align 8
  %6 = alloca i32, align 4
  %7 = alloca i32, align 4
  store i32 %0, ptr %4, align 4, !tbaa !4
  store ptr %1, ptr %5, align 8, !tbaa !74
  call void @llvm.lifetime.start.p0(i64 4, ptr %6) #4
  %8 = load ptr, ptr %5, align 8, !tbaa !74
  %9 = call i32 @X509_STORE_CTX_get_error(ptr noundef %8)
  store i32 %9, ptr %6, align 4, !tbaa !4
  %10 = load i32, ptr %6, align 4, !tbaa !4
  store i32 %10, ptr @verify_err, align 4, !tbaa !4
  %11 = load i32, ptr %6, align 4, !tbaa !4
  %12 = icmp ne i32 %11, 43
  br i1 %12, label %13, label %21

13:                                               ; preds = %2
  %14 = load i32, ptr %6, align 4, !tbaa !4
  %15 = icmp ne i32 %14, 0
  br i1 %15, label %19, label %16

16:                                               ; preds = %13
  %17 = load i32, ptr %4, align 4, !tbaa !4
  %18 = icmp ne i32 %17, 2
  br i1 %18, label %19, label %21

19:                                               ; preds = %16, %13
  %20 = load i32, ptr %4, align 4, !tbaa !4
  store i32 %20, ptr %3, align 4
  store i32 1, ptr %7, align 4
  br label %24

21:                                               ; preds = %16, %2
  %22 = load ptr, ptr %5, align 8, !tbaa !74
  call void @policies_print(ptr noundef %22)
  %23 = load i32, ptr %4, align 4, !tbaa !4
  store i32 %23, ptr %3, align 4
  store i32 1, ptr %7, align 4
  br label %24

24:                                               ; preds = %21, %19
  call void @llvm.lifetime.end.p0(i64 4, ptr %6) #4
  %25 = load i32, ptr %3, align 4
  ret i32 %25
}